target datalayout = "e-m:e-p270:32:32-p271:32:32-p272:64:64-i64:64-i128:128-f80:128-n8:16:32:64-S128"
target triple = "x86_64-pc-linux-gnu"

%"class.llvm::MultiHazardRecognizer" = type { %"class.llvm::ScheduleHazardRecognizer.base", %"class.llvm::SmallVector" }
%"class.llvm::ScheduleHazardRecognizer.base" = type <{ ptr, i32 }>
%"class.llvm::SmallVector" = type { %"class.llvm::SmallVectorImpl", %"struct.llvm::SmallVectorStorage" }
%"class.llvm::SmallVectorImpl" = type { %"class.llvm::SmallVectorTemplateBase" }
%"class.llvm::SmallVectorTemplateBase" = type { %"class.llvm::SmallVectorTemplateCommon" }
%"class.llvm::SmallVectorTemplateCommon" = type { %"class.llvm::SmallVectorBase" }
%"class.llvm::SmallVectorBase" = type { ptr, i32, i32 }
%"struct.llvm::SmallVectorStorage" = type { [32 x i8] }
%"struct.std::_Mem_fn" = type { %"class.std::_Mem_fn_base" }
%"class.std::_Mem_fn_base" = type { { i64, i64 } }
%"class.std::unique_ptr" = type { %"struct.std::__uniq_ptr_data" }
%"struct.std::__uniq_ptr_data" = type { %"class.std::__uniq_ptr_impl" }
%"class.std::__uniq_ptr_impl" = type { %"class.std::tuple" }
%"class.std::tuple" = type { %"struct.std::_Tuple_impl" }
%"struct.std::_Tuple_impl" = type { %"struct.std::_Head_base.1" }
%"struct.std::_Head_base.1" = type { ptr }
%"struct.__gnu_cxx::__ops::_Iter_pred" = type { %"struct.std::_Mem_fn" }

; Function Attrs: mustprogress nounwind uwtable
define linkonce_odr void @_ZSt19__iterator_categoryIPKSt10unique_ptrIN4llvm24ScheduleHazardRecognizerESt14default_deleteIS2_EEENSt15iterator_traitsIT_E17iterator_categoryERKS9_(ptr noundef nonnull align 8 dereferenceable(8) %0) #0 comdat {
  %2 = alloca ptr, align 8
  store ptr %0, ptr %2, align 8
  ret void
}

; Function Attrs: mustprogress nounwind uwtable
define linkonce_odr hidden void @_ZN9__gnu_cxx5__ops10_Iter_predISt7_Mem_fnIMN4llvm24ScheduleHazardRecognizerEKFbvEEEC2ES7_(ptr noundef nonnull align 8 dereferenceable(16) %0, i64 %1, i64 %2) unnamed_addr #0 comdat align 2 {
  %4 = alloca %"struct.std::_Mem_fn", align 8
  %5 = alloca ptr, align 8
  %6 = getelementptr inbounds nuw { i64, i64 }, ptr %4, i32 0, i32 0
  store i64 %1, ptr %6, align 8
  %7 = getelementptr inbounds nuw { i64, i64 }, ptr %4, i32 0, i32 1
  store i64 %2, ptr %7, align 8
  store ptr %0, ptr %5, align 8
  %8 = load ptr, ptr %5, align 8
  %9 = getelementptr inbounds nuw %"struct.__gnu_cxx::__ops::_Iter_pred", ptr %8, i32 0, i32 0
  call void @llvm.memcpy.p0.p0.i64(ptr align 8 %9, ptr align 8 %4, i64 16, i1 false)
  ret void
}

; Function Attrs: mustprogress nounwind uwtable
define linkonce_odr noundef ptr @_ZSt9__find_ifIPKSt10unique_ptrIN4llvm24ScheduleHazardRecognizerESt14default_deleteIS2_EEN9__gnu_cxx5__ops10_Iter_predISt7_Mem_fnIMS2_KFbvEEEEET_SG_SG_T0_(ptr noundef %0, ptr noundef %1, i64 %2, i64 %3) #0 comdat {
  %5 = alloca %"struct.__gnu_cxx::__ops::_Iter_pred", align 8
  %6 = alloca ptr, align 8
  %7 = alloca ptr, align 8
  %8 = alloca %"struct.__gnu_cxx::__ops::_Iter_pred", align 8
  %9 = getelementptr inbounds nuw { i64, i64 }, ptr %5, i32 0, i32 0
  store i64 %2, ptr %9, align 8
  %10 = getelementptr inbounds nuw { i64, i64 }, ptr %5, i32 0, i32 1
  store i64 %3, ptr %10, align 8
  store ptr %0, ptr %6, align 8
  store ptr %1, ptr %7, align 8
  %11 = load ptr, ptr %6, align 8
  %12 = load ptr, ptr %7, align 8
  call void @llvm.memcpy.p0.p0.i64(ptr align 8 %8, ptr align 8 %5, i64 16, i1 false)
  call void @_ZSt19__iterator_categoryIPKSt10unique_ptrIN4llvm24ScheduleHazardRecognizerESt14default_deleteIS2_EEENSt15iterator_traitsIT_E17iterator_categoryERKS9_(ptr noundef nonnull align 8 dereferenceable(8) %6)
  %13 = getelementptr inbounds nuw { i64, i64 }, ptr %8, i32 0, i32 0
  %14 = load i64, ptr %13, align 8
  %15 = getelementptr inbounds nuw { i64, i64 }, ptr %8, i32 0, i32 1
  %16 = load i64, ptr %15, align 8
  %17 = call noundef ptr @_ZSt9__find_ifIPKSt10unique_ptrIN4llvm24ScheduleHazardRecognizerESt14default_deleteIS2_EEN9__gnu_cxx5__ops10_Iter_predISt7_Mem_fnIMS2_KFbvEEEEET_SG_SG_T0_St26random_access_iterator_tag(ptr noundef %11, ptr noundef %12, i64 %14, i64 %16)
  ret ptr %17
}

; Function Attrs: mustprogress nounwind uwtable
define linkonce_odr hidden { i64, i64 } @_ZN9__gnu_cxx5__ops11__pred_iterISt7_Mem_fnIMN4llvm24ScheduleHazardRecognizerEKFbvEEEENS0_10_Iter_predIT_EES9_(i64 %0, i64 %1) #0 comdat {
  %3 = alloca %"struct.__gnu_cxx::__ops::_Iter_pred", align 8
  %4 = alloca %"struct.std::_Mem_fn", align 8
  %5 = alloca %"struct.std::_Mem_fn", align 8
  %6 = getelementptr inbounds nuw { i64, i64 }, ptr %4, i32 0, i32 0
  store i64 %0, ptr %6, align 8
  %7 = getelementptr inbounds nuw { i64, i64 }, ptr %4, i32 0, i32 1
  store i64 %1, ptr %7, align 8
  call void @llvm.memcpy.p0.p0.i64(ptr align 8 %5, ptr align 8 %4, i64 16, i1 false)
  %8 = getelementptr inbounds nuw { i64, i64 }, ptr %5, i32 0, i32 0
  %9 = load i64, ptr %8, align 8
  %10 = getelementptr inbounds nuw { i64, i64 }, ptr %5, i32 0, i32 1
  %11 = load i64, ptr %10, align 8
  call void @_ZN9__gnu_cxx5__ops10_Iter_predISt7_Mem_fnIMN4llvm24ScheduleHazardRecognizerEKFbvEEEC2ES7_(ptr noundef nonnull align 8 dereferenceable(16) %3, i64 %9, i64 %11)
  %12 = getelementptr inbounds nuw %"struct.__gnu_cxx::__ops::_Iter_pred", ptr %3, i32 0, i32 0
  %13 = getelementptr inbounds nuw %"struct.std::_Mem_fn", ptr %12, i32 0, i32 0
  %14 = getelementptr inbounds nuw %"class.std::_Mem_fn_base", ptr %13, i32 0, i32 0
  %15 = load { i64, i64 }, ptr %14, align 8
  ret { i64, i64 } %15
}

; Function Attrs: mustprogress nounwind uwtable
define linkonce_odr hidden noundef ptr @_ZNK4llvm25SmallVectorTemplateCommonISt10unique_ptrINS_24ScheduleHazardRecognizerESt14default_deleteIS2_EEvE3endEv(ptr noundef nonnull align 8 dereferenceable(16) %0) #0 comdat align 2 {
  %2 = alloca ptr, align 8
  store ptr %0, ptr %2, align 8
  %3 = load ptr, ptr %2, align 8
  %4 = call noundef ptr @_ZNK4llvm25SmallVectorTemplateCommonISt10unique_ptrINS_24ScheduleHazardRecognizerESt14default_deleteIS2_EEvE5beginEv(ptr noundef nonnull align 8 dereferenceable(16) %3)
  %5 = call noundef i64 @_ZNK4llvm15SmallVectorBaseIjE4sizeEv(ptr noundef nonnull align 8 dereferenceable(16) %3)
  %6 = getelementptr inbounds %"class.std::unique_ptr", ptr %4, i64 %5
  ret ptr %6
}

; Function Attrs: mustprogress nounwind uwtable
define linkonce_odr hidden noundef ptr @_ZNK4llvm25SmallVectorTemplateCommonISt10unique_ptrINS_24ScheduleHazardRecognizerESt14default_deleteIS2_EEvE5beginEv(ptr noundef nonnull align 8 dereferenceable(16) %0) #0 comdat align 2 {
  %2 = alloca ptr, align 8
  store ptr %0, ptr %2, align 8
  %3 = load ptr, ptr %2, align 8
  %4 = getelementptr inbounds nuw %"class.llvm::SmallVectorBase", ptr %3, i32 0, i32 0
  %5 = load ptr, ptr %4, align 8
  ret ptr %5
}

; Function Attrs: mustprogress nounwind uwtable
define linkonce_odr noundef ptr @_ZSt7find_ifIPKSt10unique_ptrIN4llvm24ScheduleHazardRecognizerESt14default_deleteIS2_EESt7_Mem_fnIMS2_KFbvEEET_SC_SC_T0_(ptr noundef %0, ptr noundef %1, i64 %2, i64 %3) #0 comdat {
  %5 = alloca %"struct.std::_Mem_fn", align 8
  %6 = alloca ptr, align 8
  %7 = alloca ptr, align 8
  %8 = alloca %"struct.__gnu_cxx::__ops::_Iter_pred", align 8
  %9 = alloca %"struct.std::_Mem_fn", align 8
  %10 = getelementptr inbounds nuw { i64, i64 }, ptr %5, i32 0, i32 0
  store i64 %2, ptr %10, align 8
  %11 = getelementptr inbounds nuw { i64, i64 }, ptr %5, i32 0, i32 1
  store i64 %3, ptr %11, align 8
  store ptr %0, ptr %6, align 8
  store ptr %1, ptr %7, align 8
  %12 = load ptr, ptr %6, align 8
  %13 = load ptr, ptr %7, align 8
  call void @llvm.memcpy.p0.p0.i64(ptr align 8 %9, ptr align 8 %5, i64 16, i1 false)
  %14 = getelementptr inbounds nuw { i64, i64 }, ptr %9, i32 0, i32 0
  %15 = load i64, ptr %14, align 8
  %16 = getelementptr inbounds nuw { i64, i64 }, ptr %9, i32 0, i32 1
  %17 = load i64, ptr %16, align 8
  %18 = call { i64, i64 } @_ZN9__gnu_cxx5__ops11__pred_iterISt7_Mem_fnIMN4llvm24ScheduleHazardRecognizerEKFbvEEEENS0_10_Iter_predIT_EES9_(i64 %15, i64 %17)
  %19 = getelementptr inbounds nuw %"struct.__gnu_cxx::__ops::_Iter_pred", ptr %8, i32 0, i32 0
  %20 = getelementptr inbounds nuw %"struct.std::_Mem_fn", ptr %19, i32 0, i32 0
  %21 = getelementptr inbounds nuw %"class.std::_Mem_fn_base", ptr %20, i32 0, i32 0
  %22 = getelementptr inbounds nuw { i64, i64 }, ptr %21, i32 0, i32 0
  %23 = extractvalue { i64, i64 } %18, 0
  store i64 %23, ptr %22, align 8
  %24 = getelementptr inbounds nuw { i64, i64 }, ptr %21, i32 0, i32 1
  %25 = extractvalue { i64, i64 } %18, 1
  store i64 %25, ptr %24, align 8
  %26 = getelementptr inbounds nuw { i64, i64 }, ptr %8, i32 0, i32 0
  %27 = load i64, ptr %26, align 8
  %28 = getelementptr inbounds nuw { i64, i64 }, ptr %8, i32 0, i32 1
  %29 = load i64, ptr %28, align 8
  %30 = call noundef ptr @_ZSt9__find_ifIPKSt10unique_ptrIN4llvm24ScheduleHazardRecognizerESt14default_deleteIS2_EEN9__gnu_cxx5__ops10_Iter_predISt7_Mem_fnIMS2_KFbvEEEEET_SG_SG_T0_(ptr noundef %12, ptr noundef %13, i64 %27, i64 %29)
  ret ptr %30
}

; Function Attrs: mustprogress nounwind uwtable
define linkonce_odr noundef ptr @_ZSt3endIN4llvm11SmallVectorISt10unique_ptrINS0_24ScheduleHazardRecognizerESt14default_deleteIS3_EELj4EEEEDTcldtfp_3endEERKT_(ptr noundef nonnull align 8 dereferenceable(48) %0) #0 comdat {
  %2 = alloca ptr, align 8
  store ptr %0, ptr %2, align 8
  %3 = load ptr, ptr %2, align 8
  %4 = call noundef ptr @_ZNK4llvm25SmallVectorTemplateCommonISt10unique_ptrINS_24ScheduleHazardRecognizerESt14default_deleteIS2_EEvE3endEv(ptr noundef nonnull align 8 dereferenceable(16) %3)
  ret ptr %4
}

; Function Attrs: mustprogress nounwind uwtable
define linkonce_odr noundef ptr @_ZSt5beginIN4llvm11SmallVectorISt10unique_ptrINS0_24ScheduleHazardRecognizerESt14default_deleteIS3_EELj4EEEEDTcldtfp_5beginEERKT_(ptr noundef nonnull align 8 dereferenceable(48) %0) #0 comdat {
  %2 = alloca ptr, align 8
  store ptr %0, ptr %2, align 8
  %3 = load ptr, ptr %2, align 8
  %4 = call noundef ptr @_ZNK4llvm25SmallVectorTemplateCommonISt10unique_ptrINS_24ScheduleHazardRecognizerESt14default_deleteIS2_EEvE5beginEv(ptr noundef nonnull align 8 dereferenceable(16) %3)
  ret ptr %4
}

; Function Attrs: mustprogress nounwind uwtable
define linkonce_odr noundef zeroext i1 @_ZSt7none_ofIPKSt10unique_ptrIN4llvm24ScheduleHazardRecognizerESt14default_deleteIS2_EESt7_Mem_fnIMS2_KFbvEEEbT_SC_T0_(ptr noundef %0, ptr noundef %1, i64 %2, i64 %3) #0 comdat {
  %5 = alloca %"struct.std::_Mem_fn", align 8
  %6 = alloca ptr, align 8
  %7 = alloca ptr, align 8
  %8 = alloca %"struct.std::_Mem_fn", align 8
  %9 = getelementptr inbounds nuw { i64, i64 }, ptr %5, i32 0, i32 0
  store i64 %2, ptr %9, align 8
  %10 = getelementptr inbounds nuw { i64, i64 }, ptr %5, i32 0, i32 1
  store i64 %3, ptr %10, align 8
  store ptr %0, ptr %6, align 8
  store ptr %1, ptr %7, align 8
  %11 = load ptr, ptr %7, align 8
  %12 = load ptr, ptr %6, align 8
  %13 = load ptr, ptr %7, align 8
  call void @llvm.memcpy.p0.p0.i64(ptr align 8 %8, ptr align 8 %5, i64 16, i1 false)
  %14 = getelementptr inbounds nuw { i64, i64 }, ptr %8, i32 0, i32 0
  %15 = load i64, ptr %14, align 8
  %16 = getelementptr inbounds nuw { i64, i64 }, ptr %8, i32 0, i32 1
  %17 = load i64, ptr %16, align 8
  %18 = call noundef ptr @_ZSt7find_ifIPKSt10unique_ptrIN4llvm24ScheduleHazardRecognizerESt14default_deleteIS2_EESt7_Mem_fnIMS2_KFbvEEET_SC_SC_T0_(ptr noundef %12, ptr noundef %13, i64 %15, i64 %17)
  %19 = icmp eq ptr %11, %18
  ret i1 %19
}

; Function Attrs: mustprogress nounwind uwtable
define linkonce_odr hidden noundef ptr @_ZN4llvm10adl_detail8end_implIRKNS_11SmallVectorISt10unique_ptrINS_24ScheduleHazardRecognizerESt14default_deleteIS4_EELj4EEEEEDTcl3endclsr3stdE7forwardIT_Efp_EEEOSB_(ptr noundef nonnull align 8 dereferenceable(48) %0) #0 comdat {
  %2 = alloca ptr, align 8
  store ptr %0, ptr %2, align 8
  %3 = load ptr, ptr %2, align 8
  %4 = call noundef ptr @_ZSt3endIN4llvm11SmallVectorISt10unique_ptrINS0_24ScheduleHazardRecognizerESt14default_deleteIS3_EELj4EEEEDTcldtfp_3endEERKT_(ptr noundef nonnull align 8 dereferenceable(48) %3)
  ret ptr %4
}

; Function Attrs: mustprogress nounwind uwtable
define linkonce_odr hidden noundef ptr @_ZN4llvm10adl_detail10begin_implIRKNS_11SmallVectorISt10unique_ptrINS_24ScheduleHazardRecognizerESt14default_deleteIS4_EELj4EEEEEDTcl5beginclsr3stdE7forwardIT_Efp_EEEOSB_(ptr noundef nonnull align 8 dereferenceable(48) %0) #0 comdat {
  %2 = alloca ptr, align 8
  store ptr %0, ptr %2, align 8
  %3 = load ptr, ptr %2, align 8
  %4 = call noundef ptr @_ZSt5beginIN4llvm11SmallVectorISt10unique_ptrINS0_24ScheduleHazardRecognizerESt14default_deleteIS3_EELj4EEEEDTcldtfp_5beginEERKT_(ptr noundef nonnull align 8 dereferenceable(48) %3)
  ret ptr %4
}

; Function Attrs: mustprogress nounwind uwtable
define linkonce_odr hidden void @_ZNSt12_Mem_fn_baseIMN4llvm24ScheduleHazardRecognizerEKFbvELb1EEC2ES3_(ptr noundef nonnull align 8 dereferenceable(16) %0, i64 %1, i64 %2) unnamed_addr #0 comdat align 2 {
  %4 = alloca { i64, i64 }, align 8
  %5 = alloca ptr, align 8
  %6 = alloca { i64, i64 }, align 8
  %7 = getelementptr inbounds nuw { i64, i64 }, ptr %4, i32 0, i32 0
  store i64 %1, ptr %7, align 8
  %8 = getelementptr inbounds nuw { i64, i64 }, ptr %4, i32 0, i32 1
  store i64 %2, ptr %8, align 8
  %9 = load { i64, i64 }, ptr %4, align 8
  store ptr %0, ptr %5, align 8
  store { i64, i64 } %9, ptr %6, align 8
  %10 = load ptr, ptr %5, align 8
  %11 = getelementptr inbounds nuw %"class.std::_Mem_fn_base", ptr %10, i32 0, i32 0
  %12 = load { i64, i64 }, ptr %6, align 8
  store { i64, i64 } %12, ptr %11, align 8
  ret void
}

; Function Attrs: mustprogress nounwind uwtable
define linkonce_odr noundef zeroext i1 @_ZSt6any_ofIPKSt10unique_ptrIN4llvm24ScheduleHazardRecognizerESt14default_deleteIS2_EESt7_Mem_fnIMS2_KFbvEEEbT_SC_T0_(ptr noundef %0, ptr noundef %1, i64 %2, i64 %3) #0 comdat {
  %5 = alloca %"struct.std::_Mem_fn", align 8
  %6 = alloca ptr, align 8
  %7 = alloca ptr, align 8
  %8 = alloca %"struct.std::_Mem_fn", align 8
  %9 = getelementptr inbounds nuw { i64, i64 }, ptr %5, i32 0, i32 0
  store i64 %2, ptr %9, align 8
  %10 = getelementptr inbounds nuw { i64, i64 }, ptr %5, i32 0, i32 1
  store i64 %3, ptr %10, align 8
  store ptr %0, ptr %6, align 8
  store ptr %1, ptr %7, align 8
  %11 = load ptr, ptr %6, align 8
  %12 = load ptr, ptr %7, align 8
  call void @llvm.memcpy.p0.p0.i64(ptr align 8 %8, ptr align 8 %5, i64 16, i1 false)
  %13 = getelementptr inbounds nuw { i64, i64 }, ptr %8, i32 0, i32 0
  %14 = load i64, ptr %13, align 8
  %15 = getelementptr inbounds nuw { i64, i64 }, ptr %8, i32 0, i32 1
  %16 = load i64, ptr %15, align 8
  %17 = call noundef zeroext i1 @_ZSt7none_ofIPKSt10unique_ptrIN4llvm24ScheduleHazardRecognizerESt14default_deleteIS2_EESt7_Mem_fnIMS2_KFbvEEEbT_SC_T0_(ptr noundef %11, ptr noundef %12, i64 %14, i64 %16)
  %18 = xor i1 %17, true
  ret i1 %18
}

; Function Attrs: mustprogress nounwind uwtable
define linkonce_odr hidden noundef ptr @_ZN4llvm7adl_endIRKNS_11SmallVectorISt10unique_ptrINS_24ScheduleHazardRecognizerESt14default_deleteIS3_EELj4EEEEEDTclsr10adl_detailE8end_implclsr3stdE7forwardIT_Efp_EEEOSA_(ptr noundef nonnull align 8 dereferenceable(48) %0) #0 comdat {
  %2 = alloca ptr, align 8
  store ptr %0, ptr %2, align 8
  %3 = load ptr, ptr %2, align 8
  %4 = call noundef ptr @_ZN4llvm10adl_detail8end_implIRKNS_11SmallVectorISt10unique_ptrINS_24ScheduleHazardRecognizerESt14default_deleteIS4_EELj4EEEEEDTcl3endclsr3stdE7forwardIT_Efp_EEEOSB_(ptr noundef nonnull align 8 dereferenceable(48) %3)
  ret ptr %4
}

; Function Attrs: mustprogress nounwind uwtable
define linkonce_odr hidden noundef ptr @_ZN4llvm9adl_beginIRKNS_11SmallVectorISt10unique_ptrINS_24ScheduleHazardRecognizerESt14default_deleteIS3_EELj4EEEEEDTclsr10adl_detailE10begin_implclsr3stdE7forwardIT_Efp_EEEOSA_(ptr noundef nonnull align 8 dereferenceable(48) %0) #0 comdat {
  %2 = alloca ptr, align 8
  store ptr %0, ptr %2, align 8
  %3 = load ptr, ptr %2, align 8
  %4 = call noundef ptr @_ZN4llvm10adl_detail10begin_implIRKNS_11SmallVectorISt10unique_ptrINS_24ScheduleHazardRecognizerESt14default_deleteIS4_EELj4EEEEEDTcl5beginclsr3stdE7forwardIT_Efp_EEEOSB_(ptr noundef nonnull align 8 dereferenceable(48) %3)
  ret ptr %4
}

; Function Attrs: mustprogress nounwind uwtable
define linkonce_odr hidden void @_ZNSt7_Mem_fnIMN4llvm24ScheduleHazardRecognizerEKFbvEECI2St12_Mem_fn_baseIS3_Lb1EEES3_(ptr noundef nonnull align 8 dereferenceable(16) %0, i64 %1, i64 %2) unnamed_addr #0 comdat align 2 {
  %4 = alloca { i64, i64 }, align 8
  %5 = alloca ptr, align 8
  %6 = alloca { i64, i64 }, align 8
  %7 = alloca { i64, i64 }, align 8
  %8 = getelementptr inbounds nuw { i64, i64 }, ptr %4, i32 0, i32 0
  store i64 %1, ptr %8, align 8
  %9 = getelementptr inbounds nuw { i64, i64 }, ptr %4, i32 0, i32 1
  store i64 %2, ptr %9, align 8
  %10 = load { i64, i64 }, ptr %4, align 8
  store ptr %0, ptr %5, align 8
  store { i64, i64 } %10, ptr %6, align 8
  %11 = load ptr, ptr %5, align 8
  %12 = load { i64, i64 }, ptr %6, align 8
  store { i64, i64 } %12, ptr %7, align 8
  %13 = getelementptr inbounds nuw { i64, i64 }, ptr %7, i32 0, i32 0
  %14 = load i64, ptr %13, align 8
  %15 = getelementptr inbounds nuw { i64, i64 }, ptr %7, i32 0, i32 1
  %16 = load i64, ptr %15, align 8
  call void @_ZNSt12_Mem_fn_baseIMN4llvm24ScheduleHazardRecognizerEKFbvELb1EEC2ES3_(ptr noundef nonnull align 8 dereferenceable(16) %11, i64 %14, i64 %16) #5
  ret void
}

; Function Attrs: mustprogress nounwind uwtable
define linkonce_odr noundef zeroext i1 @_ZN4llvm6any_ofIRKNS_11SmallVectorISt10unique_ptrINS_24ScheduleHazardRecognizerESt14default_deleteIS3_EELj4EEESt7_Mem_fnIMS3_KFbvEEEEbOT_T0_(ptr noundef nonnull align 8 dereferenceable(48) %0, i64 %1, i64 %2) #0 comdat {
  %4 = alloca %"struct.std::_Mem_fn", align 8
  %5 = alloca ptr, align 8
  %6 = alloca %"struct.std::_Mem_fn", align 8
  %7 = getelementptr inbounds nuw { i64, i64 }, ptr %4, i32 0, i32 0
  store i64 %1, ptr %7, align 8
  %8 = getelementptr inbounds nuw { i64, i64 }, ptr %4, i32 0, i32 1
  store i64 %2, ptr %8, align 8
  store ptr %0, ptr %5, align 8
  %9 = load ptr, ptr %5, align 8
  %10 = call noundef ptr @_ZN4llvm9adl_beginIRKNS_11SmallVectorISt10unique_ptrINS_24ScheduleHazardRecognizerESt14default_deleteIS3_EELj4EEEEEDTclsr10adl_detailE10begin_implclsr3stdE7forwardIT_Efp_EEEOSA_(ptr noundef nonnull align 8 dereferenceable(48) %9)
  %11 = load ptr, ptr %5, align 8
  %12 = call noundef ptr @_ZN4llvm7adl_endIRKNS_11SmallVectorISt10unique_ptrINS_24ScheduleHazardRecognizerESt14default_deleteIS3_EELj4EEEEEDTclsr10adl_detailE8end_implclsr3stdE7forwardIT_Efp_EEEOSA_(ptr noundef nonnull align 8 dereferenceable(48) %11)
  call void @llvm.memcpy.p0.p0.i64(ptr align 8 %6, ptr align 8 %4, i64 16, i1 false)
  %13 = getelementptr inbounds nuw { i64, i64 }, ptr %6, i32 0, i32 0
  %14 = load i64, ptr %13, align 8
  %15 = getelementptr inbounds nuw { i64, i64 }, ptr %6, i32 0, i32 1
  %16 = load i64, ptr %15, align 8
  %17 = call noundef zeroext i1 @_ZSt6any_ofIPKSt10unique_ptrIN4llvm24ScheduleHazardRecognizerESt14default_deleteIS2_EESt7_Mem_fnIMS2_KFbvEEEbT_SC_T0_(ptr noundef %10, ptr noundef %12, i64 %14, i64 %16)
  ret i1 %17
}

; Function Attrs: mustprogress nounwind uwtable
define linkonce_odr { i64, i64 } @_ZSt6mem_fnIKFbvEN4llvm24ScheduleHazardRecognizerEESt7_Mem_fnIMT0_T_ES6_(i64 %0, i64 %1) #0 comdat {
  %3 = alloca %"struct.std::_Mem_fn", align 8
  %4 = alloca { i64, i64 }, align 8
  %5 = alloca { i64, i64 }, align 8
  %6 = alloca { i64, i64 }, align 8
  %7 = getelementptr inbounds nuw { i64, i64 }, ptr %4, i32 0, i32 0
  store i64 %0, ptr %7, align 8
  %8 = getelementptr inbounds nuw { i64, i64 }, ptr %4, i32 0, i32 1
  store i64 %1, ptr %8, align 8
  %9 = load { i64, i64 }, ptr %4, align 8
  store { i64, i64 } %9, ptr %5, align 8
  %10 = load { i64, i64 }, ptr %5, align 8
  store { i64, i64 } %10, ptr %6, align 8
  %11 = getelementptr inbounds nuw { i64, i64 }, ptr %6, i32 0, i32 0
  %12 = load i64, ptr %11, align 8
  %13 = getelementptr inbounds nuw { i64, i64 }, ptr %6, i32 0, i32 1
  %14 = load i64, ptr %13, align 8
  call void @_ZNSt7_Mem_fnIMN4llvm24ScheduleHazardRecognizerEKFbvEECI2St12_Mem_fn_baseIS3_Lb1EEES3_(ptr noundef nonnull align 8 dereferenceable(16) %3, i64 %12, i64 %14) #5
  %15 = getelementptr inbounds nuw %"struct.std::_Mem_fn", ptr %3, i32 0, i32 0
  %16 = getelementptr inbounds nuw %"class.std::_Mem_fn_base", ptr %15, i32 0, i32 0
  %17 = load { i64, i64 }, ptr %16, align 8
  ret { i64, i64 } %17
}

; Function Attrs: mustprogress nounwind uwtable
define dso_local noundef zeroext i1 @_ZNK4llvm21MultiHazardRecognizer12atIssueLimitEv(ptr noundef nonnull align 8 dereferenceable(64) %0) unnamed_addr #0 align 2 {
  %2 = alloca ptr, align 8
  %3 = alloca %"struct.std::_Mem_fn", align 8
  %4 = alloca { i64, i64 }, align 8
  store ptr %0, ptr %2, align 8
  %5 = load ptr, ptr %2, align 8
  %6 = getelementptr inbounds nuw %"class.llvm::MultiHazardRecognizer", ptr %5, i32 0, i32 1
  store { i64, i64 } { i64 17, i64 0 }, ptr %4, align 8
  %7 = getelementptr inbounds nuw { i64, i64 }, ptr %4, i32 0, i32 0
  %8 = load i64, ptr %7, align 8
  %9 = getelementptr inbounds nuw { i64, i64 }, ptr %4, i32 0, i32 1
  %10 = load i64, ptr %9, align 8
  %11 = call { i64, i64 } @_ZSt6mem_fnIKFbvEN4llvm24ScheduleHazardRecognizerEESt7_Mem_fnIMT0_T_ES6_(i64 %8, i64 %10) #5
  %12 = getelementptr inbounds nuw %"struct.std::_Mem_fn", ptr %3, i32 0, i32 0
  %13 = getelementptr inbounds nuw %"class.std::_Mem_fn_base", ptr %12, i32 0, i32 0
  %14 = getelementptr inbounds nuw { i64, i64 }, ptr %13, i32 0, i32 0
  %15 = extractvalue { i64, i64 } %11, 0
  store i64 %15, ptr %14, align 8
  %16 = getelementptr inbounds nuw { i64, i64 }, ptr %13, i32 0, i32 1
  %17 = extractvalue { i64, i64 } %11, 1
  store i64 %17, ptr %16, align 8
  %18 = getelementptr inbounds nuw { i64, i64 }, ptr %3, i32 0, i32 0
  %19 = load i64, ptr %18, align 8
  %20 = getelementptr inbounds nuw { i64, i64 }, ptr %3, i32 0, i32 1
  %21 = load i64, ptr %20, align 8
  %22 = call noundef zeroext i1 @_ZN4llvm6any_ofIRKNS_11SmallVectorISt10unique_ptrINS_24ScheduleHazardRecognizerESt14default_deleteIS3_EELj4EEESt7_Mem_fnIMS3_KFbvEEEEbOT_T0_(ptr noundef nonnull align 8 dereferenceable(48) %6, i64 %19, i64 %21)
  ret i1 %22
}