; Function Attrs: mustprogress nounwind uwtable
define dso_local noundef zeroext i1 @_ZNK4llvm21MultiHazardRecognizer12atIssueLimitEv(ptr noundef nonnull align 8 dereferenceable(64) %0) unnamed_addr #0 align 2 {
  %2 = getelementptr inbounds nuw i8, ptr %0, i64 16
  %3 = load ptr, ptr %2, align 8
  %4 = tail call noundef i64 @_ZNK4llvm15SmallVectorBaseIjE4sizeEv(ptr noundef nonnull align 8 dereferenceable(16) %2) #6
  %5 = getelementptr inbounds %"class.std::unique_ptr", ptr %3, i64 %4
  %6 = tail call noundef ptr @_ZSt9__find_ifIPKSt10unique_ptrIN4llvm24ScheduleHazardRecognizerESt14default_deleteIS2_EEN9__gnu_cxx5__ops10_Iter_predISt7_Mem_fnIMS2_KFbvEEEEET_SG_SG_T0_St26random_access_iterator_tag(ptr noundef %3, ptr noundef %5, i64 17, i64 0)
  %7 = icmp ne ptr %5, %6
  ret i1 %7
}